; Function Attrs: nounwind uwtable
define internal fastcc void @_start_cursor(i32 noundef range(i32 -1, 7) %0) unnamed_addr #0 {
  %2 = load ptr, ptr getelementptr inbounds nuw (i8, ptr @darktable, i64 128), align 8, !tbaa !67
  %3 = getelementptr inbounds nuw i8, ptr %2, i64 360
  store i32 %0, ptr %3, align 8, !tbaa !288
  %4 = getelementptr inbounds nuw i8, ptr %2, i64 356
  store i32 0, ptr %4, align 4, !tbaa !109
  %5 = getelementptr inbounds nuw i8, ptr %2, i64 352
  %6 = load i32, ptr %5, align 8, !tbaa !108
  %7 = icmp eq i32 %6, 0
  br i1 %7, label %8, label %10

8:                                                ; preds = %1
  %9 = tail call i32 @g_timeout_add(i32 noundef 500, ptr noundef nonnull @_cursor_timeout_callback, ptr noundef null) #19
  store i32 %9, ptr %5, align 8, !tbaa !108
  br label %10

10:                                               ; preds = %8, %1
  ret void
}